; ModuleID = 'source-C-CXX/15/1257.c'
source_filename = "source-C-CXX/15/1257.c"
target datalayout = "e-m:e-p270:32:32-p271:32:32-p272:64:64-i64:64-f80:128-n8:16:32:64-S128"
target triple = "x86_64-pc-linux-gnu"

@.str = private unnamed_addr constant [3 x i8] c"%d\00", align 1
@.str.1 = private unnamed_addr constant [11 x i8] c"%d%d%d%d%d\00", align 1
@.str.2 = private unnamed_addr constant [9 x i8] c"%d%d%d%d\00", align 1
@.str.3 = private unnamed_addr constant [7 x i8] c"%d%d%d\00", align 1
@.str.4 = private unnamed_addr constant [5 x i8] c"%d%d\00", align 1

; Function Attrs: nofree nounwind sspstrong uwtable
define dso_local i32 @main() local_unnamed_addr #0 {
  %1 = alloca i32, align 4
  %2 = bitcast i32* %1 to i8*
  call void @llvm.lifetime.start.p0i8(i64 4, i8* nonnull %2) #3
  %3 = call i32 (i8*, ...) @__isoc99_scanf(i8* getelementptr inbounds ([3 x i8], [3 x i8]* @.str, i64 0, i64 0), i32* nonnull %1)
  %4 = load i32, i32* %1, align 4, !tbaa !5
  %5 = icmp sgt i32 %4, 9999
  br i1 %5, label %6, label %32

6:                                                ; preds = %0
  %7 = udiv i32 %4, 10000
  %8 = udiv i32 %4, 1000
  %9 = mul nsw i32 %7, -10
  %10 = add nsw i32 %9, %8
  %11 = udiv i32 %4, 100
  %12 = mul nsw i32 %7, -100
  %13 = add nsw i32 %12, %11
  %14 = mul nsw i32 %10, -10
  %15 = add nsw i32 %13, %14
  %16 = udiv i32 %4, 10
  %17 = mul nsw i32 %7, -1000
  %18 = add nsw i32 %17, %16
  %19 = mul nsw i32 %10, -100
  %20 = add nsw i32 %18, %19
  %21 = mul nsw i32 %15, -10
  %22 = add nsw i32 %20, %21
  %23 = mul nsw i32 %7, -10000
  %24 = add nsw i32 %23, %4
  %25 = mul nsw i32 %10, -1000
  %26 = add i32 %24, %25
  %27 = mul i32 %15, -100
  %28 = add i32 %26, %27
  %29 = mul i32 %22, -10
  %30 = add i32 %28, %29
  %31 = call i32 (i8*, ...) @printf(i8* nonnull dereferenceable(1) getelementptr inbounds ([11 x i8], [11 x i8]* @.str.1, i64 0, i64 0), i32 %30, i32 %22, i32 %15, i32 %10, i32 %7)
  br label %81

32:                                               ; preds = %0
  %33 = icmp sgt i32 %4, 999
  br i1 %33, label %34, label %55

34:                                               ; preds = %32
  %35 = trunc i32 %4 to i16
  %36 = udiv i16 %35, 1000
  %37 = zext i16 %36 to i32
  %38 = udiv i16 %35, 100
  %39 = zext i16 %38 to i32
  %40 = mul nsw i32 %37, -10
  %41 = add nsw i32 %40, %39
  %42 = udiv i16 %35, 10
  %43 = zext i16 %42 to i32
  %44 = mul nsw i32 %37, -100
  %45 = add nsw i32 %44, %43
  %46 = mul nsw i32 %41, -10
  %47 = add nsw i32 %45, %46
  %48 = mul nsw i32 %37, -1000
  %49 = add nsw i32 %48, %4
  %50 = mul nsw i32 %41, -100
  %51 = add nsw i32 %49, %50
  %52 = mul nsw i32 %47, -10
  %53 = add nsw i32 %51, %52
  %54 = call i32 (i8*, ...) @printf(i8* nonnull dereferenceable(1) getelementptr inbounds ([9 x i8], [9 x i8]* @.str.2, i64 0, i64 0), i32 %53, i32 %47, i32 %41, i32 %37)
  br label %81

55:                                               ; preds = %32
  %56 = icmp sgt i32 %4, 99
  br i1 %56, label %57, label %70

57:                                               ; preds = %55
  %58 = trunc i32 %4 to i16
  %59 = udiv i16 %58, 100
  %60 = zext i16 %59 to i32
  %61 = udiv i16 %58, 10
  %62 = zext i16 %61 to i32
  %63 = mul nsw i32 %60, -10
  %64 = add nsw i32 %63, %62
  %65 = mul nsw i32 %60, -100
  %66 = add nsw i32 %65, %4
  %67 = mul nsw i32 %64, -10
  %68 = add nsw i32 %66, %67
  %69 = call i32 (i8*, ...) @printf(i8* nonnull dereferenceable(1) getelementptr inbounds ([7 x i8], [7 x i8]* @.str.3, i64 0, i64 0), i32 %68, i32 %64, i32 %60)
  br label %81

70:                                               ; preds = %55
  %71 = icmp sgt i32 %4, 9
  br i1 %71, label %72, label %79

72:                                               ; preds = %70
  %73 = trunc i32 %4 to i8
  %74 = udiv i8 %73, 10
  %75 = zext i8 %74 to i32
  %76 = mul nsw i32 %75, -10
  %77 = add nsw i32 %76, %4
  %78 = call i32 (i8*, ...) @printf(i8* nonnull dereferenceable(1) getelementptr inbounds ([5 x i8], [5 x i8]* @.str.4, i64 0, i64 0), i32 %77, i32 %75)
  br label %81

79:                                               ; preds = %70
  %80 = call i32 (i8*, ...) @printf(i8* nonnull dereferenceable(1) getelementptr inbounds ([3 x i8], [3 x i8]* @.str, i64 0, i64 0), i32 %4)
  br label %81

81:                                               ; preds = %34, %72, %79, %57, %6
  call void @llvm.lifetime.end.p0i8(i64 4, i8* nonnull %2) #3
  ret i32 0
}

; Function Attrs: argmemonly mustprogress nofree nosync nounwind willreturn
declare void @llvm.lifetime.start.p0i8(i64 immarg, i8* nocapture) #1

; Function Attrs: nofree nounwind
declare noundef i32 @__isoc99_scanf(i8* nocapture noundef readonly, ...) local_unnamed_addr #2

; Function Attrs: nofree nounwind
declare noundef i32 @printf(i8* nocapture noundef readonly, ...) local_unnamed_addr #2

; Function Attrs: argmemonly mustprogress nofree nosync nounwind willreturn
declare void @llvm.lifetime.end.p0i8(i64 immarg, i8* nocapture) #1


!llvm.module.flags = !{!0, !1, !2, !3}
!llvm.ident = !{!4}

!0 = !{i32 1, !"wchar_size", i32 4}
!1 = !{i32 7, !"PIC Level", i32 2}
!2 = !{i32 7, !"PIE Level", i32 2}
!3 = !{i32 7, !"uwtable", i32 1}
!4 = !{!"clang version 13.0.0"}
!5 = !{!6, !6, i64 0}
!6 = !{!"int", !7, i64 0}
!7 = !{!"omnipotent char", !8, i64 0}
!8 = !{!"Simple C/C++ TBAA"}
